#include <math.h>
#include <stdio.h>
#include <stdlib.h>
#include <string.h>

int main(){
	float a,rate;
	int i,lena,lenb,sum=0;
	scanf("%f",&a);
	char an[501],bn[501];
	scanf("%s",an);
	scanf("%s",bn);
	lena=strlen(an);
	lenb=strlen(bn);
	if(lena!=lenb){
		printf("error");
		return 0;
	}
	for(i=0;i<lena;i++){
		if((an[i]!='A'&&an[i]!='T'&&an[i]!='C'&&an[i]!='G')||(bn[i]!='A'&&bn[i]!='T'&&bn[i]!='C'&&bn[i]!='G')){
			printf("error");
			return 0;
		}
	}
	for(i=0;i<lena;i++){
		if(an[i]==bn[i])
			sum+=1;
	}
	rate=1.0*sum/lena;
	if(rate>a)
		printf("yes");
	else
		printf("no");
	return 0;
}